target datalayout = "e-m:e-p270:32:32-p271:32:32-p272:64:64-i64:64-i128:128-f80:128-n8:16:32:64-S128"
target triple = "x86_64-pc-linux-gnu"

%struct.Dl_info = type { ptr, ptr, ptr, ptr }

@.str.46 = private unnamed_addr constant [3 x i8] c"%s\00", align 1

; Function Attrs: mustprogress nounwind uwtable
define linkonce_odr hidden noundef i64 @_Z13pointer_deltaPVKvS0_m(ptr noundef %0, ptr noundef %1, i64 noundef %2) #1 comdat {
  %4 = alloca ptr, align 8
  %5 = alloca ptr, align 8
  %6 = alloca i64, align 8
  store ptr %0, ptr %4, align 8
  store ptr %1, ptr %5, align 8
  store i64 %2, ptr %6, align 8
  %7 = load ptr, ptr %4, align 8
  %8 = ptrtoint ptr %7 to i64
  %9 = load ptr, ptr %5, align 8
  %10 = ptrtoint ptr %9 to i64
  %11 = sub i64 %8, %10
  %12 = load i64, ptr %6, align 8
  %13 = udiv i64 %11, %12
  ret i64 %13
}

; Function Attrs: mustprogress nounwind uwtable
define linkonce_odr hidden noundef i32 @_Z20pointer_delta_as_intIhEiPVKT_S2_(ptr noundef %0, ptr noundef %1) #1 comdat {
  %3 = alloca ptr, align 8
  %4 = alloca ptr, align 8
  %5 = alloca i64, align 8
  store ptr %0, ptr %3, align 8
  store ptr %1, ptr %4, align 8
  %6 = load ptr, ptr %3, align 8
  %7 = load ptr, ptr %4, align 8
  %8 = call noundef i64 @_Z13pointer_deltaPVKvS0_m(ptr noundef %6, ptr noundef %7, i64 noundef 1)
  store i64 %8, ptr %5, align 8
  %9 = load i64, ptr %5, align 8
  %10 = trunc i64 %9 to i32
  ret i32 %10
}

; Function Attrs: mustprogress nounwind uwtable
define hidden noundef zeroext i1 @_ZN2os27dll_address_to_library_nameEPhPciPi(ptr noundef %0, ptr noundef %1, i32 noundef %2, ptr noundef %3) #1 align 2 {
  %5 = alloca i1, align 1
  %6 = alloca ptr, align 8
  %7 = alloca ptr, align 8
  %8 = alloca i32, align 4
  %9 = alloca ptr, align 8
  %10 = alloca %struct.Dl_info, align 8
  store ptr %0, ptr %6, align 8
  store ptr %1, ptr %7, align 8
  store i32 %2, ptr %8, align 4
  store ptr %3, ptr %9, align 8
  %11 = load ptr, ptr %6, align 8
  %12 = call i32 @dladdr(ptr noundef %11, ptr noundef %10) #12
  %13 = icmp ne i32 %12, 0
  br i1 %13, label %14, label %39

14:                                               ; preds = %4
  %15 = getelementptr inbounds %struct.Dl_info, ptr %10, i32 0, i32 0
  %16 = load ptr, ptr %15, align 8
  %17 = icmp ne ptr %16, null
  br i1 %17, label %18, label %25

18:                                               ; preds = %14
  %19 = load ptr, ptr %7, align 8
  %20 = load i32, ptr %8, align 4
  %21 = sext i32 %20 to i64
  %22 = getelementptr inbounds %struct.Dl_info, ptr %10, i32 0, i32 0
  %23 = load ptr, ptr %22, align 8
  %24 = call i32 (ptr, i64, ptr, ...) @jio_snprintf(ptr noundef %19, i64 noundef %21, ptr noundef @.str.46, ptr noundef %23)
  br label %25

25:                                               ; preds = %18, %14
  %26 = getelementptr inbounds %struct.Dl_info, ptr %10, i32 0, i32 1
  %27 = load ptr, ptr %26, align 8
  %28 = icmp ne ptr %27, null
  br i1 %28, label %29, label %38

29:                                               ; preds = %25
  %30 = load ptr, ptr %9, align 8
  %31 = icmp ne ptr %30, null
  br i1 %31, label %32, label %38

32:                                               ; preds = %29
  %33 = load ptr, ptr %6, align 8
  %34 = getelementptr inbounds %struct.Dl_info, ptr %10, i32 0, i32 1
  %35 = load ptr, ptr %34, align 8
  %36 = call noundef i32 @_Z20pointer_delta_as_intIhEiPVKT_S2_(ptr noundef %33, ptr noundef %35)
  %37 = load ptr, ptr %9, align 8
  store i32 %36, ptr %37, align 4
  br label %38

38:                                               ; preds = %32, %29, %25
  store i1 true, ptr %5, align 1
  br label %47

39:                                               ; preds = %4
  %40 = load ptr, ptr %7, align 8
  %41 = getelementptr inbounds i8, ptr %40, i64 0
  store i8 0, ptr %41, align 1
  %42 = load ptr, ptr %9, align 8
  %43 = icmp ne ptr %42, null
  br i1 %43, label %44, label %46

44:                                               ; preds = %39
  %45 = load ptr, ptr %9, align 8
  store i32 -1, ptr %45, align 4
  br label %46

46:                                               ; preds = %44, %39
  store i1 false, ptr %5, align 1
  br label %47

47:                                               ; preds = %46, %38
  %48 = load i1, ptr %5, align 1
  ret i1 %48
}