; Function Attrs: mustprogress nounwind uwtable
define hidden noundef zeroext i1 @_ZN2os27dll_address_to_library_nameEPhPciPi(ptr noundef %0, ptr noundef %1, i32 noundef %2, ptr noundef writeonly %3) local_unnamed_addr #0 align 2 {
  %5 = alloca %struct.Dl_info, align 8
  %6 = call i32 @dladdr(ptr noundef %0, ptr noundef nonnull %5) #26
  %.not = icmp ne i32 %6, 0
  br i1 %.not, label %7, label %22

7:                                                ; preds = %4
  %8 = load ptr, ptr %5, align 8
  %.not14 = icmp eq ptr %8, null
  br i1 %.not14, label %12, label %9

9:                                                ; preds = %7
  %10 = sext i32 %2 to i64
  %11 = call i32 (ptr, i64, ptr, ...) @jio_snprintf(ptr noundef %1, i64 noundef %10, ptr noundef nonnull @.str.46, ptr noundef nonnull %8) #26
  br label %12

12:                                               ; preds = %9, %7
  %13 = getelementptr inbounds i8, ptr %5, i64 8
  %14 = load ptr, ptr %13, align 8
  %15 = icmp ne ptr %14, null
  %16 = icmp ne ptr %3, null
  %or.cond = and i1 %16, %15
  br i1 %or.cond, label %17, label %23

17:                                               ; preds = %12
  %18 = ptrtoint ptr %0 to i64
  %19 = ptrtoint ptr %14 to i64
  %20 = sub i64 %18, %19
  %21 = trunc i64 %20 to i32
  br label %.sink.split

22:                                               ; preds = %4
  store i8 0, ptr %1, align 1
  %.not13 = icmp eq ptr %3, null
  br i1 %.not13, label %23, label %.sink.split

.sink.split:                                      ; preds = %22, %17
  %.sink = phi i32 [ %21, %17 ], [ -1, %22 ]
  store i32 %.sink, ptr %3, align 4
  br label %23

23:                                               ; preds = %.sink.split, %22, %12
  ret i1 %.not
}